target datalayout = "e-m:e-p270:32:32-p271:32:32-p272:64:64-i64:64-i128:128-f80:128-n8:16:32:64-S128"
target triple = "x86_64-unknown-linux-gnu"

%"struct.facebook::velox::ByteRange" = type { ptr, i32, i32 }
%"class.__gnu_cxx::__normal_iterator" = type { ptr }
%"class.facebook::velox::ByteInputStream" = type { ptr, %"class.std::vector", ptr }
%"class.std::vector" = type { %"struct.std::_Vector_base" }
%"struct.std::_Vector_base" = type { %"struct.std::_Vector_base<facebook::velox::ByteRange, std::allocator<facebook::velox::ByteRange>>::_Vector_impl" }
%"struct.std::_Vector_base<facebook::velox::ByteRange, std::allocator<facebook::velox::ByteRange>>::_Vector_impl" = type { %"struct.std::_Vector_base<facebook::velox::ByteRange, std::allocator<facebook::velox::ByteRange>>::_Vector_impl_data" }
%"struct.std::_Vector_base<facebook::velox::ByteRange, std::allocator<facebook::velox::ByteRange>>::_Vector_impl_data" = type { ptr, ptr, ptr }

; Function Attrs: mustprogress nounwind uwtable
define linkonce_odr noundef nonnull align 8 dereferenceable(8) ptr @_ZNK9__gnu_cxx17__normal_iteratorIPKN8facebook5velox9ByteRangeESt6vectorIS3_SaIS3_EEE4baseEv(ptr noundef nonnull align 8 dereferenceable(8) %this) #3 comdat align 2 {
entry:
  %this.addr = alloca ptr, align 8
  store ptr %this, ptr %this.addr, align 8
  %this1 = load ptr, ptr %this.addr, align 8
  %_M_current = getelementptr inbounds %"class.__gnu_cxx::__normal_iterator", ptr %this1, i32 0, i32 0
  ret ptr %_M_current
}

; Function Attrs: mustprogress nounwind uwtable
define linkonce_odr void @_ZN9__gnu_cxx17__normal_iteratorIPKN8facebook5velox9ByteRangeESt6vectorIS3_SaIS3_EEEC2ERKS5_(ptr noundef nonnull align 8 dereferenceable(8) %this, ptr noundef nonnull align 8 dereferenceable(8) %__i) unnamed_addr #3 comdat align 2 {
entry:
  %this.addr = alloca ptr, align 8
  %__i.addr = alloca ptr, align 8
  store ptr %this, ptr %this.addr, align 8
  store ptr %__i, ptr %__i.addr, align 8
  %this1 = load ptr, ptr %this.addr, align 8
  %_M_current = getelementptr inbounds %"class.__gnu_cxx::__normal_iterator", ptr %this1, i32 0, i32 0
  %0 = load ptr, ptr %__i.addr, align 8
  %1 = load ptr, ptr %0, align 8
  store ptr %1, ptr %_M_current, align 8
  ret void
}

; Function Attrs: mustprogress nounwind uwtable
define linkonce_odr noundef zeroext i1 @_ZN9__gnu_cxxeqIPKN8facebook5velox9ByteRangeESt6vectorIS3_SaIS3_EEEEbRKNS_17__normal_iteratorIT_T0_EESE_(ptr noundef nonnull align 8 dereferenceable(8) %__lhs, ptr noundef nonnull align 8 dereferenceable(8) %__rhs) #3 comdat {
entry:
  %__lhs.addr = alloca ptr, align 8
  %__rhs.addr = alloca ptr, align 8
  store ptr %__lhs, ptr %__lhs.addr, align 8
  store ptr %__rhs, ptr %__rhs.addr, align 8
  %0 = load ptr, ptr %__lhs.addr, align 8
  %call = call noundef nonnull align 8 dereferenceable(8) ptr @_ZNK9__gnu_cxx17__normal_iteratorIPKN8facebook5velox9ByteRangeESt6vectorIS3_SaIS3_EEE4baseEv(ptr noundef nonnull align 8 dereferenceable(8) %0) #14
  %1 = load ptr, ptr %call, align 8
  %2 = load ptr, ptr %__rhs.addr, align 8
  %call1 = call noundef nonnull align 8 dereferenceable(8) ptr @_ZNK9__gnu_cxx17__normal_iteratorIPKN8facebook5velox9ByteRangeESt6vectorIS3_SaIS3_EEE4baseEv(ptr noundef nonnull align 8 dereferenceable(8) %2) #14
  %3 = load ptr, ptr %call1, align 8
  %cmp = icmp eq ptr %1, %3
  ret i1 %cmp
}

; Function Attrs: mustprogress nounwind uwtable
define linkonce_odr ptr @_ZNKSt6vectorIN8facebook5velox9ByteRangeESaIS2_EE3endEv(ptr noundef nonnull align 8 dereferenceable(24) %this) #3 comdat align 2 {
entry:
  %retval = alloca %"class.__gnu_cxx::__normal_iterator", align 8
  %this.addr = alloca ptr, align 8
  store ptr %this, ptr %this.addr, align 8
  %this1 = load ptr, ptr %this.addr, align 8
  %_M_impl = getelementptr inbounds %"struct.std::_Vector_base", ptr %this1, i32 0, i32 0
  %_M_finish = getelementptr inbounds %"struct.std::_Vector_base<facebook::velox::ByteRange, std::allocator<facebook::velox::ByteRange>>::_Vector_impl_data", ptr %_M_impl, i32 0, i32 1
  call void @_ZN9__gnu_cxx17__normal_iteratorIPKN8facebook5velox9ByteRangeESt6vectorIS3_SaIS3_EEEC2ERKS5_(ptr noundef nonnull align 8 dereferenceable(8) %retval, ptr noundef nonnull align 8 dereferenceable(8) %_M_finish) #14
  %coerce.dive = getelementptr inbounds %"class.__gnu_cxx::__normal_iterator", ptr %retval, i32 0, i32 0
  %0 = load ptr, ptr %coerce.dive, align 8
  ret ptr %0
}

; Function Attrs: mustprogress nounwind uwtable
define linkonce_odr ptr @_ZNKSt6vectorIN8facebook5velox9ByteRangeESaIS2_EE5beginEv(ptr noundef nonnull align 8 dereferenceable(24) %this) #3 comdat align 2 {
entry:
  %retval = alloca %"class.__gnu_cxx::__normal_iterator", align 8
  %this.addr = alloca ptr, align 8
  store ptr %this, ptr %this.addr, align 8
  %this1 = load ptr, ptr %this.addr, align 8
  %_M_impl = getelementptr inbounds %"struct.std::_Vector_base", ptr %this1, i32 0, i32 0
  %_M_start = getelementptr inbounds %"struct.std::_Vector_base<facebook::velox::ByteRange, std::allocator<facebook::velox::ByteRange>>::_Vector_impl_data", ptr %_M_impl, i32 0, i32 0
  call void @_ZN9__gnu_cxx17__normal_iteratorIPKN8facebook5velox9ByteRangeESt6vectorIS3_SaIS3_EEEC2ERKS5_(ptr noundef nonnull align 8 dereferenceable(8) %retval, ptr noundef nonnull align 8 dereferenceable(8) %_M_start) #14
  %coerce.dive = getelementptr inbounds %"class.__gnu_cxx::__normal_iterator", ptr %retval, i32 0, i32 0
  %0 = load ptr, ptr %coerce.dive, align 8
  ret ptr %0
}

; Function Attrs: mustprogress nounwind uwtable
define linkonce_odr noundef nonnull align 8 dereferenceable(16) ptr @_ZNKSt6vectorIN8facebook5velox9ByteRangeESaIS2_EEixEm(ptr noundef nonnull align 8 dereferenceable(24) %this, i64 noundef %__n) #3 comdat align 2 {
entry:
  %this.addr = alloca ptr, align 8
  %__n.addr = alloca i64, align 8
  store ptr %this, ptr %this.addr, align 8
  store i64 %__n, ptr %__n.addr, align 8
  %this1 = load ptr, ptr %this.addr, align 8
  %_M_impl = getelementptr inbounds %"struct.std::_Vector_base", ptr %this1, i32 0, i32 0
  %_M_start = getelementptr inbounds %"struct.std::_Vector_base<facebook::velox::ByteRange, std::allocator<facebook::velox::ByteRange>>::_Vector_impl_data", ptr %_M_impl, i32 0, i32 0
  %0 = load ptr, ptr %_M_start, align 8
  %1 = load i64, ptr %__n.addr, align 8
  %add.ptr = getelementptr inbounds %"struct.facebook::velox::ByteRange", ptr %0, i64 %1
  ret ptr %add.ptr
}

; Function Attrs: mustprogress nounwind uwtable
define linkonce_odr noundef i64 @_ZNKSt6vectorIN8facebook5velox9ByteRangeESaIS2_EE4sizeEv(ptr noundef nonnull align 8 dereferenceable(24) %this) #3 comdat align 2 {
entry:
  %this.addr = alloca ptr, align 8
  store ptr %this, ptr %this.addr, align 8
  %this1 = load ptr, ptr %this.addr, align 8
  %_M_impl = getelementptr inbounds %"struct.std::_Vector_base", ptr %this1, i32 0, i32 0
  %_M_finish = getelementptr inbounds %"struct.std::_Vector_base<facebook::velox::ByteRange, std::allocator<facebook::velox::ByteRange>>::_Vector_impl_data", ptr %_M_impl, i32 0, i32 1
  %0 = load ptr, ptr %_M_finish, align 8
  %_M_impl2 = getelementptr inbounds %"struct.std::_Vector_base", ptr %this1, i32 0, i32 0
  %_M_start = getelementptr inbounds %"struct.std::_Vector_base<facebook::velox::ByteRange, std::allocator<facebook::velox::ByteRange>>::_Vector_impl_data", ptr %_M_impl2, i32 0, i32 0
  %1 = load ptr, ptr %_M_start, align 8
  %sub.ptr.lhs.cast = ptrtoint ptr %0 to i64
  %sub.ptr.rhs.cast = ptrtoint ptr %1 to i64
  %sub.ptr.sub = sub i64 %sub.ptr.lhs.cast, %sub.ptr.rhs.cast
  %sub.ptr.div = sdiv exact i64 %sub.ptr.sub, 16
  ret i64 %sub.ptr.div
}

; Function Attrs: mustprogress nounwind uwtable
define linkonce_odr noundef zeroext i1 @_ZNKSt6vectorIN8facebook5velox9ByteRangeESaIS2_EE5emptyEv(ptr noundef nonnull align 8 dereferenceable(24) %this) #3 comdat align 2 {
entry:
  %this.addr = alloca ptr, align 8
  %ref.tmp = alloca %"class.__gnu_cxx::__normal_iterator", align 8
  %ref.tmp2 = alloca %"class.__gnu_cxx::__normal_iterator", align 8
  store ptr %this, ptr %this.addr, align 8
  %this1 = load ptr, ptr %this.addr, align 8
  %call = call ptr @_ZNKSt6vectorIN8facebook5velox9ByteRangeESaIS2_EE5beginEv(ptr noundef nonnull align 8 dereferenceable(24) %this1) #14
  %coerce.dive = getelementptr inbounds %"class.__gnu_cxx::__normal_iterator", ptr %ref.tmp, i32 0, i32 0
  store ptr %call, ptr %coerce.dive, align 8
  %call3 = call ptr @_ZNKSt6vectorIN8facebook5velox9ByteRangeESaIS2_EE3endEv(ptr noundef nonnull align 8 dereferenceable(24) %this1) #14
  %coerce.dive4 = getelementptr inbounds %"class.__gnu_cxx::__normal_iterator", ptr %ref.tmp2, i32 0, i32 0
  store ptr %call3, ptr %coerce.dive4, align 8
  %call5 = call noundef zeroext i1 @_ZN9__gnu_cxxeqIPKN8facebook5velox9ByteRangeESt6vectorIS3_SaIS3_EEEEbRKNS_17__normal_iteratorIT_T0_EESE_(ptr noundef nonnull align 8 dereferenceable(8) %ref.tmp, ptr noundef nonnull align 8 dereferenceable(8) %ref.tmp2) #14
  ret i1 %call5
}

; Function Attrs: mustprogress nounwind uwtable
define noundef i64 @_ZNK8facebook5velox15ByteInputStream13remainingSizeEv(ptr noundef nonnull align 8 dereferenceable(40) %this) #3 align 2 {
entry:
  %retval = alloca i64, align 8
  %this.addr = alloca ptr, align 8
  %lastRange = alloca ptr, align 8
  %cur = alloca ptr, align 8
  %total = alloca i64, align 8
  store ptr %this, ptr %this.addr, align 8
  %this1 = load ptr, ptr %this.addr, align 8
  %ranges_ = getelementptr inbounds %"class.facebook::velox::ByteInputStream", ptr %this1, i32 0, i32 1
  %call = call noundef zeroext i1 @_ZNKSt6vectorIN8facebook5velox9ByteRangeESaIS2_EE5emptyEv(ptr noundef nonnull align 8 dereferenceable(24) %ranges_) #14
  br i1 %call, label %if.then, label %if.end

if.then:                                          ; preds = %entry
  store i64 0, ptr %retval, align 8
  br label %return

if.end:                                           ; preds = %entry
  %ranges_2 = getelementptr inbounds %"class.facebook::velox::ByteInputStream", ptr %this1, i32 0, i32 1
  %ranges_3 = getelementptr inbounds %"class.facebook::velox::ByteInputStream", ptr %this1, i32 0, i32 1
  %call4 = call noundef i64 @_ZNKSt6vectorIN8facebook5velox9ByteRangeESaIS2_EE4sizeEv(ptr noundef nonnull align 8 dereferenceable(24) %ranges_3) #14
  %sub = sub i64 %call4, 1
  %call5 = call noundef nonnull align 8 dereferenceable(16) ptr @_ZNKSt6vectorIN8facebook5velox9ByteRangeESaIS2_EEixEm(ptr noundef nonnull align 8 dereferenceable(24) %ranges_2, i64 noundef %sub) #14
  store ptr %call5, ptr %lastRange, align 8
  %current_ = getelementptr inbounds %"class.facebook::velox::ByteInputStream", ptr %this1, i32 0, i32 2
  %0 = load ptr, ptr %current_, align 8
  store ptr %0, ptr %cur, align 8
  %1 = load ptr, ptr %cur, align 8
  %size = getelementptr inbounds %"struct.facebook::velox::ByteRange", ptr %1, i32 0, i32 1
  %2 = load i32, ptr %size, align 8
  %3 = load ptr, ptr %cur, align 8
  %position = getelementptr inbounds %"struct.facebook::velox::ByteRange", ptr %3, i32 0, i32 2
  %4 = load i32, ptr %position, align 4
  %sub6 = sub nsw i32 %2, %4
  %conv = sext i32 %sub6 to i64
  store i64 %conv, ptr %total, align 8
  br label %while.cond

while.cond:                                       ; preds = %while.body, %if.end
  %5 = load ptr, ptr %cur, align 8
  %incdec.ptr = getelementptr inbounds %"struct.facebook::velox::ByteRange", ptr %5, i32 1
  store ptr %incdec.ptr, ptr %cur, align 8
  %6 = load ptr, ptr %lastRange, align 8
  %cmp = icmp ule ptr %incdec.ptr, %6
  br i1 %cmp, label %while.body, label %while.end

while.body:                                       ; preds = %while.cond
  %7 = load ptr, ptr %cur, align 8
  %size7 = getelementptr inbounds %"struct.facebook::velox::ByteRange", ptr %7, i32 0, i32 1
  %8 = load i32, ptr %size7, align 8
  %conv8 = sext i32 %8 to i64
  %9 = load i64, ptr %total, align 8
  %add = add i64 %9, %conv8
  store i64 %add, ptr %total, align 8
  br label %while.cond, !llvm.loop !7

while.end:                                        ; preds = %while.cond
  %10 = load i64, ptr %total, align 8
  store i64 %10, ptr %retval, align 8
  br label %return

return:                                           ; preds = %while.end, %if.then
  %11 = load i64, ptr %retval, align 8
  ret i64 %11
}