; Function Attrs: mustprogress nofree norecurse nosync nounwind willreturn memory(read, inaccessiblemem: none) uwtable
define noundef i64 @_ZNK8facebook5velox15ByteInputStream13remainingSizeEv(ptr nocapture noundef nonnull readonly align 8 dereferenceable(40) %this) local_unnamed_addr #5 align 2 {
entry:
  %ranges_ = getelementptr inbounds i8, ptr %this, i64 8
  %0 = load ptr, ptr %ranges_, align 8
  %_M_finish.i.i = getelementptr inbounds i8, ptr %this, i64 16
  %1 = load ptr, ptr %_M_finish.i.i, align 8
  %cmp.i.i = icmp eq ptr %0, %1
  br i1 %cmp.i.i, label %return, label %if.end

if.end:                                           ; preds = %entry
  %sub.ptr.lhs.cast.i = ptrtoint ptr %1 to i64
  %sub.ptr.rhs.cast.i = ptrtoint ptr %0 to i64
  %sub.ptr.sub.i = sub i64 %sub.ptr.lhs.cast.i, %sub.ptr.rhs.cast.i
  %2 = getelementptr i8, ptr %0, i64 %sub.ptr.sub.i
  %add.ptr.i = getelementptr i8, ptr %2, i64 -16
  %current_ = getelementptr inbounds i8, ptr %this, i64 32
  %3 = load ptr, ptr %current_, align 8
  %size = getelementptr inbounds i8, ptr %3, i64 8
  %4 = load i32, ptr %size, align 8
  %position = getelementptr inbounds i8, ptr %3, i64 12
  %5 = load i32, ptr %position, align 4
  %sub6 = sub nsw i32 %4, %5
  %conv = sext i32 %sub6 to i64
  %incdec.ptr5 = getelementptr inbounds i8, ptr %3, i64 16
  %cmp.not6 = icmp ugt ptr %incdec.ptr5, %add.ptr.i
  br i1 %cmp.not6, label %return, label %while.body

while.body:                                       ; preds = %if.end, %while.body
  %incdec.ptr9 = phi ptr [ %incdec.ptr, %while.body ], [ %incdec.ptr5, %if.end ]
  %total.08 = phi i64 [ %add, %while.body ], [ %conv, %if.end ]
  %cur.07 = phi ptr [ %incdec.ptr9, %while.body ], [ %3, %if.end ]
  %size7 = getelementptr inbounds i8, ptr %cur.07, i64 24
  %6 = load i32, ptr %size7, align 8
  %conv8 = sext i32 %6 to i64
  %add = add i64 %total.08, %conv8
  %incdec.ptr = getelementptr inbounds i8, ptr %incdec.ptr9, i64 16
  %cmp.not = icmp ugt ptr %incdec.ptr, %add.ptr.i
  br i1 %cmp.not, label %return, label %while.body, !llvm.loop !7

return:                                           ; preds = %while.body, %if.end, %entry
  %retval.0 = phi i64 [ 0, %entry ], [ %conv, %if.end ], [ %add, %while.body ]
  ret i64 %retval.0
}